Certificate:
    Data:
        Version: 3 (0x2)
        Serial Number: 1 (0x1)
    Signature Algorithm: sha256WithRSAEncryption
        Issuer: CN=devcert
        Validity
            Not Before: Apr 28 04:59:05 2020 GMT
            Not After : Aug  1 04:59:05 2022 GMT
        Subject: CN=localhost
        Subject Public Key Info:
            Public Key Algorithm: rsaEncryption
                Public-Key: (2048 bit)
                Modulus:
                    00:c0:91:de:88:dd:39:86:3a:c5:5a:2a:a6:1d:ba:
                    96:dc:db:ff:31:90:35:d9:a4:47:2e:83:1b:03:e9:
                    7f:ca:71:cb:cb:63:31:64:6d:e3:c8:9a:8d:a1:12:
                    85:ea:2e:46:33:39:23:b8:72:40:3f:42:fd:3e:16:
                    8f:8b:23:17:6a:2e:6b:ba:d2:8f:3f:53:40:e1:65:
                    a9:0f:d0:31:8f:f3:cc:81:3b:51:dc:ca:96:3b:38:
                    ce:8c:99:de:a3:dd:58:d5:23:b3:2e:63:57:5c:61:
                    2a:fb:40:ac:21:f4:08:fd:86:8b:6a:18:76:2b:77:
                    e1:3d:0b:73:59:1f:cf:66:b2:d3:bb:f4:68:ca:cc:
                    78:0f:3c:ed:01:c3:86:d1:a5:a6:c4:12:56:a3:ff:
                    0a:84:77:5e:09:15:a8:e7:8a:d6:a8:f3:c7:b7:8e:
                    15:21:db:b8:a5:63:8d:a7:63:c9:30:3e:0a:33:d0:
                    89:43:e2:2b:61:38:1f:6c:aa:b5:34:9c:c0:6a:97:
                    ec:7d:0f:09:f9:84:3c:db:78:83:f2:af:94:ae:fb:
                    4c:7e:9a:49:43:01:69:1b:1d:e1:61:ea:52:19:e0:
                    28:1f:27:85:fc:03:29:b0:47:a9:a7:64:9c:7e:50:
                    9a:f9:b7:d0:51:b5:14:0c:7e:09:74:44:35:3d:4b:
                    58:5d
                Exponent: 65537 (0x10001)
        X509v3 extensions:
            X509v3 Basic Constraints: critical
                CA:FALSE
            X509v3 Subject Key Identifier: 
                D1:8F:F6:00:CE:FE:A3:E9:12:59:45:6A:99:7A:8C:29:01:B6:7B:23
            X509v3 Authority Key Identifier: 
                keyid:A6:07:15:B5:AE:79:50:72:0B:E4:C6:5E:4C:66:FF:BA:92:5A:91:0B
                DirName:/CN=devcert
                serial:98:78:E0:6E:07:5A:FB:E3

            X509v3 Key Usage: critical
                Digital Signature, Key Encipherment
            X509v3 Extended Key Usage: 
                TLS Web Server Authentication
            X509v3 Subject Alternative Name: 
                DNS:localhost, DNS:*.localhost
    Signature Algorithm: sha256WithRSAEncryption
         0f:a0:01:42:31:9b:85:ca:a5:14:e1:aa:3d:a7:c2:ca:d8:96:
         1f:91:b2:61:a7:8f:60:30:61:05:4d:8e:ca:9f:f6:dd:53:4a:
         74:4e:39:c0:f3:d9:32:03:0e:59:34:a1:65:3d:90:73:88:4b:
         d3:d6:14:da:2f:98:65:9f:d5:df:6d:c5:08:93:f8:6a:f7:8a:
         5e:35:a4:1c:49:ef:54:af:dd:d1:75:97:bc:65:02:ec:d9:fe:
         7c:e7:d5:1b:f0:1e:09:77:00:e0:a6:06:56:a2:44:b7:1e:b8:
         a6:32:68:d4:3c:d7:b0:b0:6c:12:69:a8:9a:c9:64:7a:a3:09:
         63:5c:13:17:4e:7d:90:72:06:2a:f5:11:69:81:85:b8:46:54:
         0c:c7:e2:bc:c3:be:7b:d2:79:ab:aa:01:9f:06:1e:1e:95:72:
         2d:19:e2:c8:81:76:1d:f7:e0:1d:c8:40:81:6f:9e:a6:ce:ea:
         bd:3a:46:cb:78:da:fa:2b:de:0e:a0:eb:12:a6:7c:c6:5b:d8:
         b1:c1:fe:21:83:2e:96:18:97:b8:9b:c3:f3:54:fd:09:10:c3:
         b7:1b:c3:a2:ee:dc:22:75:34:05:6f:b8:39:dd:44:1a:0f:c4:
         70:f4:e9:cd:78:25:5f:bd:7f:a0:1d:53:d1:af:4e:53:83:84:
         bb:b4:7e:3b
-----BEGIN CERTIFICATE-----
MIIDXjCCAkagAwIBAgIBATANBgkqhkiG9w0BAQsFADASMRAwDgYDVQQDDAdkZXZj
ZXJ0MB4XDTIwMDQyODA0NTkwNVoXDTIyMDgwMTA0NTkwNVowFDESMBAGA1UEAwwJ
bG9jYWxob3N0MIIBIjANBgkqhkiG9w0BAQEFAAOCAQ8AMIIBCgKCAQEAwJHeiN05
hjrFWiqmHbqW3Nv/MZA12aRHLoMbA+l/ynHLy2MxZG3jyJqNoRKF6i5GMzkjuHJA
P0L9PhaPiyMXai5rutKPP1NA4WWpD9Axj/PMgTtR3MqWOzjOjJneo91Y1SOzLmNX
XGEq+0CsIfQI/YaLahh2K3fhPQtzWR/PZrLTu/Roysx4DzztAcOG0aWmxBJWo/8K
hHdeCRWo54rWqPPHt44VIdu4pWONp2PJMD4KM9CJQ+IrYTgfbKq1NJzAapfsfQ8J
+YQ823iD8q+UrvtMfppJQwFpGx3hYepSGeAoHyeF/AMpsEepp2ScflCa+bfQUbUU
DH4JdEQ1PUtYXQIDAQABo4G8MIG5MAwGA1UdEwEB/wQCMAAwHQYDVR0OBBYEFNGP
9gDO/qPpEllFapl6jCkBtnsjMEIGA1UdIwQ7MDmAFKYHFbWueVByC+TGXkxm/7qS
WpELoRakFDASMRAwDgYDVQQDDAdkZXZjZXJ0ggkAmHjgbgda++MwDgYDVR0PAQH/
BAQDAgWgMBMGA1UdJQQMMAoGCCsGAQUFBwMBMCEGA1UdEQQaMBiCCWxvY2FsaG9z
dIILKi5sb2NhbGhvc3QwDQYJKoZIhvcNAQELBQADggEBAA+gAUIxm4XKpRThqj2n
wsrYlh+RsmGnj2AwYQVNjsqf9t1TSnROOcDz2TIDDlk0oWU9kHOIS9PWFNovmGWf
1d9txQiT+Gr3il41pBxJ71Sv3dF1l7xlAuzZ/nzn1RvwHgl3AOCmBlaiRLceuKYy
aNQ817CwbBJpqJrJZHqjCWNcExdOfZByBir1EWmBhbhGVAzH4rzDvnvSeauqAZ8G
Hh6Vci0Z4siBdh334B3IQIFvnqbO6r06Rst42vor3g6g6xKmfMZb2LHB/iGDLpYY
l7ibw/NU/QkQw7cbw6Lu3CJ1NAVvuDndRBoPxHD06c14JV+9f6AdU9GvTlODhLu0
fjs=
-----END CERTIFICATE-----
